; Function Attrs: nounwind uwtable
define void @Lf_ManAnalyzeCoDrivers(ptr noundef readonly captures(none) %0, ptr noundef writeonly captures(none) %1, ptr noundef writeonly captures(none) %2) local_unnamed_addr #5 {
  %4 = getelementptr i8, ptr %0, i64 24
  %.val29 = load i32, ptr %4, align 8, !tbaa !41
  %5 = add i32 %.val29, -1
  %or.cond.i.i = icmp ult i32 %5, 15
  %spec.store.select.i.i = select i1 %or.cond.i.i, i32 16, i32 %.val29
  %.not.i.i = icmp eq i32 %spec.store.select.i.i, 0
  br i1 %.not.i.i, label %Vec_IntStart.exit, label %Vec_IntAlloc.exit.i

Vec_IntAlloc.exit.i:                              ; preds = %3
  %6 = sext i32 %spec.store.select.i.i to i64
  %7 = shl nsw i64 %6, 2
  %8 = tail call noalias ptr @malloc(i64 noundef %7) #33
  %.not.i = icmp eq ptr %8, null
  br i1 %.not.i, label %Vec_IntStart.exit, label %9

9:                                                ; preds = %Vec_IntAlloc.exit.i
  %10 = sext i32 %.val29 to i64
  %11 = shl nsw i64 %10, 2
  tail call void @llvm.memset.p0.i64(ptr nonnull align 4 %8, i8 0, i64 %11, i1 false)
  br label %Vec_IntStart.exit

Vec_IntStart.exit:                                ; preds = %3, %Vec_IntAlloc.exit.i, %9
  %12 = phi ptr [ null, %Vec_IntAlloc.exit.i ], [ %8, %9 ], [ null, %3 ]
  %13 = getelementptr inbounds nuw i8, ptr %0, i64 72
  %14 = load ptr, ptr %13, align 8, !tbaa !49
  %15 = getelementptr i8, ptr %14, i64 4
  %.val3038 = load i32, ptr %15, align 4, !tbaa !50
  %16 = icmp sgt i32 %.val3038, 0
  br i1 %16, label %.lr.ph, label %.critedge

.lr.ph:                                           ; preds = %Vec_IntStart.exit
  %17 = getelementptr i8, ptr %0, i64 32
  %.val32 = load ptr, ptr %17, align 8, !tbaa !22
  %.not = icmp eq ptr %.val32, null
  br i1 %.not, label %.critedge, label %.lr.ph.split

.lr.ph.split:                                     ; preds = %.lr.ph
  %18 = getelementptr i8, ptr %14, i64 8
  %.val33.val = load ptr, ptr %18, align 8, !tbaa !39
  br label %19

19:                                               ; preds = %.lr.ph.split, %19
  %indvars.iv = phi i64 [ 0, %.lr.ph.split ], [ %indvars.iv.next, %19 ]
  %20 = getelementptr inbounds nuw i32, ptr %.val33.val, i64 %indvars.iv
  %21 = load i32, ptr %20, align 4, !tbaa !40
  %22 = sext i32 %21 to i64
  %23 = getelementptr inbounds %struct.Gia_Obj_t_, ptr %.val32, i64 %22
  %.val34 = load i64, ptr %23, align 4
  %24 = trunc i64 %.val34 to i32
  %25 = and i32 %24, 536870912
  %.not28 = icmp eq i32 %25, 0
  %26 = select i1 %.not28, i32 1, i32 2
  %27 = and i32 %24, 536870911
  %28 = sub nsw i32 %21, %27
  %29 = sext i32 %28 to i64
  %30 = getelementptr inbounds i32, ptr %12, i64 %29
  %31 = load i32, ptr %30, align 4, !tbaa !40
  %32 = or i32 %26, %31
  store i32 %32, ptr %30, align 4, !tbaa !40
  %indvars.iv.next = add nuw nsw i64 %indvars.iv, 1
  %.val30 = load i32, ptr %15, align 4, !tbaa !50
  %33 = sext i32 %.val30 to i64
  %34 = icmp slt i64 %indvars.iv.next, %33
  br i1 %34, label %19, label %.critedge, !llvm.loop !51

.critedge:                                        ; preds = %19, %.lr.ph, %Vec_IntStart.exit
  %35 = icmp sgt i32 %.val29, 0
  br i1 %35, label %.lr.ph44, label %.critedge2

.lr.ph44:                                         ; preds = %.critedge
  %wide.trip.count = zext nneg i32 %.val29 to i64
  br label %36

36:                                               ; preds = %.lr.ph44, %36
  %indvars.iv48 = phi i64 [ 0, %.lr.ph44 ], [ %indvars.iv.next49, %36 ]
  %.02542 = phi i32 [ 0, %.lr.ph44 ], [ %44, %36 ]
  %.02641 = phi i32 [ 0, %.lr.ph44 ], [ %41, %36 ]
  %37 = getelementptr inbounds nuw i32, ptr %12, i64 %indvars.iv48
  %38 = load i32, ptr %37, align 4, !tbaa !40
  %39 = icmp ne i32 %38, 0
  %40 = zext i1 %39 to i32
  %41 = add nuw nsw i32 %.02641, %40
  %42 = icmp eq i32 %38, 3
  %43 = zext i1 %42 to i32
  %44 = add nuw nsw i32 %.02542, %43
  %indvars.iv.next49 = add nuw nsw i64 %indvars.iv48, 1
  %exitcond.not = icmp eq i64 %indvars.iv.next49, %wide.trip.count
  br i1 %exitcond.not, label %.critedge2.thread, label %36, !llvm.loop !52

.critedge2:                                       ; preds = %.critedge
  %.not.i37 = icmp eq ptr %12, null
  br i1 %.not.i37, label %Vec_IntFree.exit, label %.critedge2.thread

.critedge2.thread:                                ; preds = %36, %.critedge2
  %.025.lcssa57 = phi i32 [ 0, %.critedge2 ], [ %44, %36 ]
  %.026.lcssa55 = phi i32 [ 0, %.critedge2 ], [ %41, %36 ]
  tail call void @free(ptr noundef nonnull %12) #34
  br label %Vec_IntFree.exit

Vec_IntFree.exit:                                 ; preds = %.critedge2, %.critedge2.thread
  %.025.lcssa58 = phi i32 [ 0, %.critedge2 ], [ %.025.lcssa57, %.critedge2.thread ]
  %.026.lcssa56 = phi i32 [ 0, %.critedge2 ], [ %.026.lcssa55, %.critedge2.thread ]
  store i32 %.026.lcssa56, ptr %1, align 4, !tbaa !40
  store i32 %.025.lcssa58, ptr %2, align 4, !tbaa !40
  ret void
}